; Function Attrs: mustprogress uwtable
define noundef zeroext i1 @_ZN6google8protobuf21WebSafeBase64UnescapeENS0_11StringPieceEPNSt7__cxx1112basic_stringIcSt11char_traitsIcESaIcEEE(ptr readonly captures(none) %0, i64 %1, ptr noundef nonnull %2) local_unnamed_addr #6 personality ptr @__gxx_personality_v0 {
  %4 = trunc i64 %1 to i32
  %.neg.i = sdiv i32 %4, -4
  %5 = add i32 %.neg.i, %4
  %6 = sext i32 %5 to i64
  tail call void @_ZNSt7__cxx1112basic_stringIcSt11char_traitsIcESaIcEE6resizeEmc(ptr noundef nonnull align 8 dereferenceable(32) %2, i64 noundef %6, i8 noundef signext 0)
  %7 = getelementptr inbounds nuw i8, ptr %2, i64 8
  %8 = load i64, ptr %7, align 8, !tbaa !14
  %9 = icmp eq i64 %8, 0
  br i1 %9, label %_ZN6google8protobuf15string_as_arrayEPNSt7__cxx1112basic_stringIcSt11char_traitsIcESaIcEEE.exit.i, label %10

10:                                               ; preds = %3
  %11 = load ptr, ptr %2, align 8, !tbaa !3
  br label %_ZN6google8protobuf15string_as_arrayEPNSt7__cxx1112basic_stringIcSt11char_traitsIcESaIcEEE.exit.i

_ZN6google8protobuf15string_as_arrayEPNSt7__cxx1112basic_stringIcSt11char_traitsIcESaIcEEE.exit.i: ; preds = %10, %3
  %12 = phi ptr [ %11, %10 ], [ null, %3 ]
  %13 = tail call noundef i32 @_ZN6google8protobuf22Base64UnescapeInternalEPKciPciPKa(ptr noundef readonly %0, i32 noundef %4, ptr noundef %12, i32 noundef %5, ptr noundef nonnull @_ZN6google8protobufL16kUnWebSafeBase64E)
  %14 = icmp sgt i32 %13, -1
  br i1 %14, label %17, label %15

15:                                               ; preds = %_ZN6google8protobuf15string_as_arrayEPNSt7__cxx1112basic_stringIcSt11char_traitsIcESaIcEEE.exit.i
  store i64 0, ptr %7, align 8, !tbaa !14
  %16 = load ptr, ptr %2, align 8, !tbaa !3
  store i8 0, ptr %16, align 1, !tbaa !11
  br label %_ZN6google8protobufL22Base64UnescapeInternalEPKciPNSt7__cxx1112basic_stringIcSt11char_traitsIcESaIcEEEPKa.exit

17:                                               ; preds = %_ZN6google8protobuf15string_as_arrayEPNSt7__cxx1112basic_stringIcSt11char_traitsIcESaIcEEE.exit.i
  %18 = zext nneg i32 %13 to i64
  %19 = load i64, ptr %7, align 8, !tbaa !14
  %20 = icmp ult i64 %19, %18
  br i1 %20, label %21, label %_ZNSt7__cxx1112basic_stringIcSt11char_traitsIcESaIcEE5eraseEmm.exit.i

21:                                               ; preds = %17
  tail call void (ptr, ...) @_ZSt24__throw_out_of_range_fmtPKcz(ptr noundef nonnull @.str.45, ptr noundef nonnull @.str.49, i64 noundef %18, i64 noundef %19) #30
  unreachable

_ZNSt7__cxx1112basic_stringIcSt11char_traitsIcESaIcEE5eraseEmm.exit.i: ; preds = %17
  store i64 %18, ptr %7, align 8, !tbaa !14
  %22 = load ptr, ptr %2, align 8, !tbaa !3
  %23 = getelementptr inbounds nuw i8, ptr %22, i64 %18
  store i8 0, ptr %23, align 1, !tbaa !11
  br label %_ZN6google8protobufL22Base64UnescapeInternalEPKciPNSt7__cxx1112basic_stringIcSt11char_traitsIcESaIcEEEPKa.exit

_ZN6google8protobufL22Base64UnescapeInternalEPKciPNSt7__cxx1112basic_stringIcSt11char_traitsIcESaIcEEEPKa.exit: ; preds = %15, %_ZNSt7__cxx1112basic_stringIcSt11char_traitsIcESaIcEE5eraseEmm.exit.i
  ret i1 %14
}